target datalayout = "e-m:e-p270:32:32-p271:32:32-p272:64:64-i64:64-i128:128-f80:128-n8:16:32:64-S128"
target triple = "x86_64-pc-linux-gnu"

@external_pid_file = external global ptr, align 8

; Function Attrs: nounwind uwtable
define internal void @unlink_external_pid_file(i32 noundef %0, i64 noundef %1) #2 {
  %3 = alloca i32, align 4
  %4 = alloca i64, align 8
  store i32 %0, ptr %3, align 4
  store i64 %1, ptr %4, align 8
  %5 = load ptr, ptr @external_pid_file, align 8
  %6 = icmp ne ptr %5, null
  br i1 %6, label %7, label %10

7:                                                ; preds = %2
  %8 = load ptr, ptr @external_pid_file, align 8
  %9 = call i32 @unlink(ptr noundef %8) #15
  br label %10

10:                                               ; preds = %7, %2
  ret void
}