; Function Attrs: nofree nounwind uwtable
define internal void @unlink_external_pid_file(i32 %0, i64 %1) #10 {
  %3 = load ptr, ptr @external_pid_file, align 8
  %.not = icmp eq ptr %3, null
  br i1 %.not, label %6, label %4

4:                                                ; preds = %2
  %5 = tail call i32 @unlink(ptr noundef nonnull %3) #18
  br label %6

6:                                                ; preds = %4, %2
  ret void
}